target datalayout = "e-m:e-p270:32:32-p271:32:32-p272:64:64-i64:64-i128:128-f80:128-n8:16:32:64-S128"
target triple = "x86_64-pc-linux-gnu"

%"struct.Luau::Location" = type { %"struct.Luau::Position", %"struct.Luau::Position" }
%"struct.Luau::Position" = type { i32, i32 }

; Function Attrs: mustprogress uwtable
define dso_local void @_ZN4Luau12TypeChecker213visitExprNameEPNS_7AstExprENS_8LocationERKNSt7__cxx1112basic_stringIcSt11char_traitsIcESaIcEEENS_12ValueContextEPKNS_4TypeE(ptr noundef nonnull align 8 dereferenceable(784) %0, ptr noundef %1, i64 %2, i64 %3, ptr noundef nonnull align 8 dereferenceable(32) %4, i32 noundef %5, ptr noundef %6) #7 align 2 {
  %8 = alloca %"struct.Luau::Location", align 4
  %9 = alloca ptr, align 8
  %10 = alloca ptr, align 8
  %11 = alloca ptr, align 8
  %12 = alloca i32, align 4
  %13 = alloca ptr, align 8
  %14 = alloca ptr, align 8
  %15 = getelementptr inbounds nuw { i64, i64 }, ptr %8, i32 0, i32 0
  store i64 %2, ptr %15, align 4
  %16 = getelementptr inbounds nuw { i64, i64 }, ptr %8, i32 0, i32 1
  store i64 %3, ptr %16, align 4
  store ptr %0, ptr %9, align 8, !tbaa !131
  store ptr %1, ptr %10, align 8, !tbaa !312
  store ptr %4, ptr %11, align 8, !tbaa !272
  store i32 %5, ptr %12, align 4, !tbaa !768
  store ptr %6, ptr %13, align 8, !tbaa !243
  %17 = load ptr, ptr %9, align 8
  %18 = load ptr, ptr %10, align 8, !tbaa !312
  call void @_ZN4Luau12TypeChecker25visitEPNS_7AstExprENS_12ValueContextE(ptr noundef nonnull align 8 dereferenceable(784) %17, ptr noundef %18, i32 noundef 1)
  call void @llvm.lifetime.start.p0(i64 8, ptr %14) #4
  %19 = load ptr, ptr %10, align 8, !tbaa !312
  %20 = call noundef ptr @_ZN4Luau12TypeChecker210lookupTypeEPNS_7AstExprE(ptr noundef nonnull align 8 dereferenceable(784) %17, ptr noundef %19)
  %21 = call noundef ptr @_ZN4Luau12TypeChecker221stripFromNilAndReportEPKNS_4TypeERKNS_8LocationE(ptr noundef nonnull align 8 dereferenceable(784) %17, ptr noundef %20, ptr noundef nonnull align 4 dereferenceable(16) %8)
  store ptr %21, ptr %14, align 8, !tbaa !243
  %22 = load ptr, ptr %14, align 8, !tbaa !243
  %23 = load ptr, ptr %11, align 8, !tbaa !272
  %24 = load i32, ptr %12, align 4, !tbaa !768
  %25 = load ptr, ptr %13, align 8, !tbaa !243
  call void @_ZN4Luau12TypeChecker222checkIndexTypeFromTypeEPKNS_4TypeERKNSt7__cxx1112basic_stringIcSt11char_traitsIcESaIcEEENS_12ValueContextERKNS_8LocationES3_(ptr noundef nonnull align 8 dereferenceable(784) %17, ptr noundef %22, ptr noundef nonnull align 8 dereferenceable(32) %23, i32 noundef %24, ptr noundef nonnull align 4 dereferenceable(16) %8, ptr noundef %25)
  call void @llvm.lifetime.end.p0(i64 8, ptr %14) #4
  ret void
}