; Function Attrs: mustprogress uwtable
define dso_local void @_ZN4Luau12TypeChecker213visitExprNameEPNS_7AstExprENS_8LocationERKNSt7__cxx1112basic_stringIcSt11char_traitsIcESaIcEEENS_12ValueContextEPKNS_4TypeE(ptr noundef nonnull align 8 dereferenceable(784) %0, ptr noundef %1, i64 %2, i64 %3, ptr noundef nonnull align 8 dereferenceable(32) %4, i32 noundef %5, ptr noundef %6) local_unnamed_addr #5 align 2 {
  %8 = alloca %"struct.Luau::Location", align 8
  store i64 %2, ptr %8, align 8
  %9 = getelementptr inbounds nuw i8, ptr %8, i64 8
  store i64 %3, ptr %9, align 8
  tail call void @_ZN4Luau12TypeChecker25visitEPNS_7AstExprENS_12ValueContextE(ptr noundef nonnull align 8 dereferenceable(784) %0, ptr noundef %1, i32 noundef 1)
  %10 = tail call noundef ptr @_ZN4Luau12TypeChecker210lookupTypeEPNS_7AstExprE(ptr noundef nonnull align 8 dereferenceable(784) %0, ptr noundef %1)
  %11 = call noundef ptr @_ZN4Luau12TypeChecker221stripFromNilAndReportEPKNS_4TypeERKNS_8LocationE(ptr noundef nonnull align 8 dereferenceable(784) %0, ptr noundef %10, ptr noundef nonnull align 4 dereferenceable(16) %8)
  call void @_ZN4Luau12TypeChecker222checkIndexTypeFromTypeEPKNS_4TypeERKNSt7__cxx1112basic_stringIcSt11char_traitsIcESaIcEEENS_12ValueContextERKNS_8LocationES3_(ptr noundef nonnull align 8 dereferenceable(784) %0, ptr noundef %11, ptr noundef nonnull align 8 dereferenceable(32) %4, i32 noundef %5, ptr noundef nonnull align 4 dereferenceable(16) %8, ptr noundef %6)
  ret void
}